; Function Attrs: mustprogress nounwind ssp uwtable
define internal void @_ZN6open3d12_GLOBAL__N_123GlobalColorMapSingletonD2Ev(ptr noundef nonnull readonly align 8 captures(none) dereferenceable(16) %0) unnamed_addr #2 align 2 personality ptr @__gxx_personality_v0 {
  invoke void @_ZN6open3d7utility6Logger9LogDebug_IJEEEvPKciS4_S4_DpOT_(ptr noundef nonnull @.str, i32 noundef 28, ptr noundef nonnull @__PRETTY_FUNCTION__._ZN6open3d12_GLOBAL__N_123GlobalColorMapSingletonD2Ev, ptr noundef nonnull @.str.5)
          to label %2 unwind label %26

2:                                                ; preds = %1
  %3 = getelementptr inbounds nuw i8, ptr %0, i64 8
  %4 = load ptr, ptr %3, align 8, !tbaa !25
  %.not.i.i = icmp eq ptr %4, null
  br i1 %.not.i.i, label %_ZNSt12__shared_ptrIKN6open3d13visualization8ColorMapELN9__gnu_cxx12_Lock_policyE2EED2Ev.exit, label %5

5:                                                ; preds = %2
  %6 = getelementptr inbounds nuw i8, ptr %4, i64 8
  %7 = load atomic i64, ptr %6 acquire, align 8
  %8 = icmp eq i64 %7, 4294967297
  %9 = trunc i64 %7 to i32
  br i1 %8, label %10, label %18

10:                                               ; preds = %5
  store i32 0, ptr %6, align 8, !tbaa !30
  %11 = getelementptr inbounds nuw i8, ptr %4, i64 12
  store i32 0, ptr %11, align 4, !tbaa !32
  %12 = load ptr, ptr %4, align 8, !tbaa !28
  %13 = getelementptr inbounds nuw i8, ptr %12, i64 16
  %14 = load ptr, ptr %13, align 8
  tail call void %14(ptr noundef nonnull align 8 dereferenceable(16) %4) #22
  %15 = load ptr, ptr %4, align 8, !tbaa !28
  %16 = getelementptr inbounds nuw i8, ptr %15, i64 24
  %17 = load ptr, ptr %16, align 8
  tail call void %17(ptr noundef nonnull align 8 dereferenceable(16) %4) #22
  br label %_ZNSt12__shared_ptrIKN6open3d13visualization8ColorMapELN9__gnu_cxx12_Lock_policyE2EED2Ev.exit

18:                                               ; preds = %5
  %19 = load i8, ptr @__libc_single_threaded, align 1, !tbaa !8
  %.not.i.i.i = icmp eq i8 %19, 0
  br i1 %.not.i.i.i, label %22, label %20

20:                                               ; preds = %18
  %21 = add nsw i32 %9, -1
  store i32 %21, ptr %6, align 4, !tbaa !26
  br label %_ZN9__gnu_cxx27__exchange_and_add_dispatchEPii.exit.i.i.i

22:                                               ; preds = %18
  %23 = atomicrmw volatile add ptr %6, i32 -1 acq_rel, align 4
  br label %_ZN9__gnu_cxx27__exchange_and_add_dispatchEPii.exit.i.i.i

_ZN9__gnu_cxx27__exchange_and_add_dispatchEPii.exit.i.i.i: ; preds = %22, %20
  %.0.i.i.i.i = phi i32 [ %9, %20 ], [ %23, %22 ]
  %24 = icmp eq i32 %.0.i.i.i.i, 1
  br i1 %24, label %25, label %_ZNSt12__shared_ptrIKN6open3d13visualization8ColorMapELN9__gnu_cxx12_Lock_policyE2EED2Ev.exit, !prof !36

25:                                               ; preds = %_ZN9__gnu_cxx27__exchange_and_add_dispatchEPii.exit.i.i.i
  tail call void @_ZNSt16_Sp_counted_baseILN9__gnu_cxx12_Lock_policyE2EE24_M_release_last_use_coldEv(ptr noundef nonnull align 8 dereferenceable(16) %4) #22
  br label %_ZNSt12__shared_ptrIKN6open3d13visualization8ColorMapELN9__gnu_cxx12_Lock_policyE2EED2Ev.exit

_ZNSt12__shared_ptrIKN6open3d13visualization8ColorMapELN9__gnu_cxx12_Lock_policyE2EED2Ev.exit: ; preds = %2, %10, %_ZN9__gnu_cxx27__exchange_and_add_dispatchEPii.exit.i.i.i, %25
  ret void

26:                                               ; preds = %1
  %27 = landingpad { ptr, i32 }
          catch ptr null
  %28 = extractvalue { ptr, i32 } %27, 0
  tail call void @__clang_call_terminate(ptr %28) #23
  unreachable
}